   1              	 .cpu cortex-m0
   2              	 .fpu softvfp
   3              	 .eabi_attribute 20,1
   4              	 .eabi_attribute 21,1
   5              	 .eabi_attribute 23,3
   6              	 .eabi_attribute 24,1
   7              	 .eabi_attribute 25,1
   8              	 .eabi_attribute 26,1
   9              	 .eabi_attribute 30,6
  10              	 .eabi_attribute 34,0
  11              	 .eabi_attribute 18,4
  12              	 .code 16
  13              	 .file "main.c"
  14              	 .text
  15              	.Ltext0:
  16              	 .cfi_sections .debug_frame
  17              	 .section .text.main,"ax",%progbits
  18              	 .align 2
  19              	 .global main
  20              	 .code 16
  21              	 .thumb_func
  23              	main:
  24              	.LFB133:
  25              	 .file 1 "../main.c"
   1:../main.c     **** /*
   2:../main.c     ****  * main.c
   3:../main.c     ****  *
   4:../main.c     ****  *  Created on: 2024 Mar 27 08:28:17
   5:../main.c     ****  *  Author: AlbrechAndre
   6:../main.c     ****  */
   7:../main.c     **** 
   8:../main.c     **** 
   9:../main.c     **** 
  10:../main.c     **** 
  11:../main.c     **** #include "DAVE.h"                 //Declarations from DAVE Code Generation (includes SFR declaratio
  12:../main.c     **** 
  13:../main.c     **** /**
  14:../main.c     **** 
  15:../main.c     ****  * @brief main() - Application entry point
  16:../main.c     ****  *
  17:../main.c     ****  * <b>Details of function</b><br>
  18:../main.c     ****  * This routine is the application entry point. It is invoked by the device startup code. It is res
  19:../main.c     ****  * invoking the APP initialization dispatcher routine - DAVE_Init() and hosting the place-holder fo
  20:../main.c     ****  * code.
  21:../main.c     ****  */
  22:../main.c     **** 
  23:../main.c     **** int main(void)
  24:../main.c     **** {
  26              	 .loc 1 24 0
  27              	 .cfi_startproc
  28 0000 80B5     	 push {r7,lr}
  29              	.LCFI0:
  30              	 .cfi_def_cfa_offset 8
  31              	 .cfi_offset 7,-8
  32              	 .cfi_offset 14,-4
  33 0002 84B0     	 sub sp,sp,#16
  34              	.LCFI1:
  35              	 .cfi_def_cfa_offset 24
  36 0004 00AF     	 add r7,sp,#0
  37              	.LCFI2:
  38              	 .cfi_def_cfa_register 7
  25:../main.c     ****   DAVE_Init();           /* Initialization of DAVE APPs  */
  39              	 .loc 1 25 0
  40 0006 FFF7FEFF 	 bl DAVE_Init
  26:../main.c     **** 
  27:../main.c     ****   int duty_A=1000; //duty cycle = 10%
  41              	 .loc 1 27 0
  42 000a FA23     	 mov r3,#250
  43 000c 9B00     	 lsl r3,r3,#2
  44 000e 7B60     	 str r3,[r7,#4]
  28:../main.c     ****   int duty_B=9000; //duty cycle = 90%
  45              	 .loc 1 28 0
  46 0010 114B     	 ldr r3,.L6
  47 0012 3B60     	 str r3,[r7]
  29:../main.c     ****   int duty=5000; //duty cycle = 50%
  48              	 .loc 1 29 0
  49 0014 114B     	 ldr r3,.L6+4
  50 0016 FB60     	 str r3,[r7,#12]
  30:../main.c     ****   int i=0; //counter variable
  51              	 .loc 1 30 0
  52 0018 0023     	 mov r3,#0
  53 001a BB60     	 str r3,[r7,#8]
  54              	.L5:
  31:../main.c     **** 
  32:../main.c     ****   while(1U)
  33:../main.c     ****   {
  34:../main.c     **** 	  if(i==50000){
  55              	 .loc 1 34 0
  56 001c BB68     	 ldr r3,[r7,#8]
  57 001e 104A     	 ldr r2,.L6+8
  58 0020 9342     	 cmp r3,r2
  59 0022 01D1     	 bne .L2
  35:../main.c     **** 		  duty=duty_A;
  60              	 .loc 1 35 0
  61 0024 7B68     	 ldr r3,[r7,#4]
  62 0026 FB60     	 str r3,[r7,#12]
  63              	.L2:
  36:../main.c     **** 	  }
  37:../main.c     **** 	  if(i==100000){
  64              	 .loc 1 37 0
  65 0028 BB68     	 ldr r3,[r7,#8]
  66 002a 0E4A     	 ldr r2,.L6+12
  67 002c 9342     	 cmp r3,r2
  68 002e 01D1     	 bne .L3
  38:../main.c     **** 		  duty=duty_B;
  69              	 .loc 1 38 0
  70 0030 3B68     	 ldr r3,[r7]
  71 0032 FB60     	 str r3,[r7,#12]
  72              	.L3:
  39:../main.c     **** 	  }
  40:../main.c     **** 	  if(i==150000){
  73              	 .loc 1 40 0
  74 0034 BB68     	 ldr r3,[r7,#8]
  75 0036 0C4A     	 ldr r2,.L6+16
  76 0038 9342     	 cmp r3,r2
  77 003a 01D1     	 bne .L4
  41:../main.c     **** 		  i=0;
  78              	 .loc 1 41 0
  79 003c 0023     	 mov r3,#0
  80 003e BB60     	 str r3,[r7,#8]
  81              	.L4:
  42:../main.c     **** 	  }
  43:../main.c     **** 
  44:../main.c     **** 	  PWM_CCU8_SetDutyCycleAsymmetric(&PWM_CCU8_0, 0, duty); //sets the duty cycle to value of duty
  82              	 .loc 1 44 0
  83 0040 FB68     	 ldr r3,[r7,#12]
  84 0042 0A4A     	 ldr r2,.L6+20
  85 0044 101C     	 mov r0,r2
  86 0046 0021     	 mov r1,#0
  87 0048 1A1C     	 mov r2,r3
  88 004a FFF7FEFF 	 bl PWM_CCU8_SetDutyCycleAsymmetric
  45:../main.c     **** 	  i++; //counter i + 1
  89              	 .loc 1 45 0
  90 004e BB68     	 ldr r3,[r7,#8]
  91 0050 0133     	 add r3,r3,#1
  92 0052 BB60     	 str r3,[r7,#8]
  46:../main.c     ****   }
  93              	 .loc 1 46 0
  94 0054 E2E7     	 b .L5
  95              	.L7:
  96 0056 C046     	 .align 2
  97              	.L6:
  98 0058 28230000 	 .word 9000
  99 005c 88130000 	 .word 5000
 100 0060 50C30000 	 .word 50000
 101 0064 A0860100 	 .word 100000
 102 0068 F0490200 	 .word 150000
 103 006c 00000000 	 .word PWM_CCU8_0
 104              	 .cfi_endproc
 105              	.LFE133:
 107              	 .text
 108              	.Letext0:
 109              	 .file 2 "c:\\infineon\\tools\\dave ide\\4.5.0.202105191637\\eclipse\\arm-gcc-49\\arm-none-eabi\\include\\machine\\_default_types.h"
 110              	 .file 3 "c:\\infineon\\tools\\dave ide\\4.5.0.202105191637\\eclipse\\arm-gcc-49\\arm-none-eabi\\include\\stdint.h"
 111              	 .file 4 "C:/Users/AlbrechAndre/Documents/Office/IMM_2024/Dave/PWM_example/Libraries/CMSIS/Infineon/XMC1300_series/Include/XMC1300.h"
 112              	 .file 5 "C:/Users/AlbrechAndre/Documents/Office/IMM_2024/Dave/PWM_example/Libraries/XMCLib/inc/xmc1_scu.h"
 113              	 .file 6 "C:/Users/AlbrechAndre/Documents/Office/IMM_2024/Dave/PWM_example/Libraries/XMCLib/inc/xmc_ccu8.h"
 114              	 .file 7 "C:/Users/AlbrechAndre/Documents/Office/IMM_2024/Dave/PWM_example/Dave/Generated/GLOBAL_CCU8/global_ccu8.h"
 115              	 .file 8 "C:/Users/AlbrechAndre/Documents/Office/IMM_2024/Dave/PWM_example/Libraries/XMCLib/inc/xmc_gpio.h"
 116              	 .file 9 "C:/Users/AlbrechAndre/Documents/Office/IMM_2024/Dave/PWM_example/Libraries/XMCLib/inc/xmc1_gpio.h"
 117              	 .file 10 "C:/Users/AlbrechAndre/Documents/Office/IMM_2024/Dave/PWM_example/Dave/Generated/PWM_CCU8/pwm_ccu8.h"
 118              	 .file 11 "C:/Users/AlbrechAndre/Documents/Office/IMM_2024/Dave/PWM_example/Libraries/CMSIS/Include/cmsis_gcc.h"
 119              	 .file 12 "C:/Users/AlbrechAndre/Documents/Office/IMM_2024/Dave/PWM_example/Libraries/CMSIS/Infineon/XMC1300_series/Include/system_XMC1300.h"
 120              	 .file 13 "C:/Users/AlbrechAndre/Documents/Office/IMM_2024/Dave/PWM_example/Dave/Generated/PWM_CCU8/pwm_ccu8_extern.h"